; Function Attrs: mustprogress uwtable
define hidden noundef zeroext i1 @_ZNK13proof_checker8match_orEPK4exprR10ptr_vectorIS0_E(ptr nocapture nonnull readnone align 8 %this, ptr noundef readonly %e, ptr noundef nonnull align 8 dereferenceable(8) %terms) local_unnamed_addr #4 align 2 {
entry:
  %m_kind.i.i = getelementptr inbounds i8, ptr %e, i64 4
  %bf.load.i.i = load i32, ptr %m_kind.i.i, align 4
  %bf.clear.i.i = and i32 %bf.load.i.i, 65535
  %cmp.i = icmp eq i32 %bf.clear.i.i, 0
  br i1 %cmp.i, label %land.lhs.true.i, label %_ZNK13proof_checker8match_opEPK4expriR10ptr_vectorIS0_E.exit

land.lhs.true.i:                                  ; preds = %entry
  %m_decl.i.i.i = getelementptr inbounds i8, ptr %e, i64 16
  %0 = load ptr, ptr %m_decl.i.i.i, align 8
  %m_info.i.i.i = getelementptr inbounds i8, ptr %0, i64 24
  %1 = load ptr, ptr %m_info.i.i.i, align 8
  %cmp.i.i.i = icmp eq ptr %1, null
  br i1 %cmp.i.i.i, label %_ZNK13proof_checker8match_opEPK4expriR10ptr_vectorIS0_E.exit, label %_ZNK3app13get_family_idEv.exit.i

_ZNK3app13get_family_idEv.exit.i:                 ; preds = %land.lhs.true.i
  %2 = load i32, ptr %1, align 8
  %cmp5.i = icmp eq i32 %2, 0
  br i1 %cmp5.i, label %_ZNK3app13get_decl_kindEv.exit.i, label %_ZNK13proof_checker8match_opEPK4expriR10ptr_vectorIS0_E.exit

_ZNK3app13get_decl_kindEv.exit.i:                 ; preds = %_ZNK3app13get_family_idEv.exit.i
  %m_kind.i.i.i.i = getelementptr inbounds i8, ptr %1, i64 4
  %3 = load i32, ptr %m_kind.i.i.i.i, align 4
  %cmp9.i = icmp eq i32 %3, 6
  br i1 %cmp9.i, label %if.then.i, label %_ZNK13proof_checker8match_opEPK4expriR10ptr_vectorIS0_E.exit

if.then.i:                                        ; preds = %_ZNK3app13get_decl_kindEv.exit.i
  %m_num_args.i.i = getelementptr inbounds i8, ptr %e, i64 24
  %4 = load i32, ptr %m_num_args.i.i, align 8
  %idx.ext.i.i = zext i32 %4 to i64
  %add.ptr.i.idx.i = shl nuw nsw i64 %idx.ext.i.i, 3
  %5 = getelementptr i8, ptr %e, i64 %add.ptr.i.idx.i
  %add.ptr.i.ptr.i = getelementptr i8, ptr %5, i64 32
  %cmp13.not17.i = icmp eq i32 %4, 0
  br i1 %cmp13.not17.i, label %_ZNK13proof_checker8match_opEPK4expriR10ptr_vectorIS0_E.exit, label %for.body.preheader.i

for.body.preheader.i:                             ; preds = %if.then.i
  %m_args.i.ptr.i = getelementptr inbounds i8, ptr %e, i64 32
  br label %for.body.i

for.body.i:                                       ; preds = %_ZN6vectorIP4exprLb0EjE9push_backERKS1_.exit.i, %for.body.preheader.i
  %__begin2.018.i = phi ptr [ %incdec.ptr.i, %_ZN6vectorIP4exprLb0EjE9push_backERKS1_.exit.i ], [ %m_args.i.ptr.i, %for.body.preheader.i ]
  %6 = load ptr, ptr %__begin2.018.i, align 8
  %7 = load ptr, ptr %terms, align 8
  %cmp.i.i = icmp eq ptr %7, null
  br i1 %cmp.i.i, label %if.then.i.i, label %lor.lhs.false.i.i

lor.lhs.false.i.i:                                ; preds = %for.body.i
  %arrayidx.i.i = getelementptr inbounds i8, ptr %7, i64 -4
  %8 = load i32, ptr %arrayidx.i.i, align 4
  %arrayidx4.i.i = getelementptr inbounds i8, ptr %7, i64 -8
  %9 = load i32, ptr %arrayidx4.i.i, align 4
  %cmp5.i.i = icmp eq i32 %8, %9
  br i1 %cmp5.i.i, label %if.then.i.i, label %_ZN6vectorIP4exprLb0EjE9push_backERKS1_.exit.i

if.then.i.i:                                      ; preds = %lor.lhs.false.i.i, %for.body.i
  tail call void @_ZN6vectorIP4exprLb0EjE13expand_vectorEv(ptr noundef nonnull align 8 dereferenceable(8) %terms)
  %.pre.i.i = load ptr, ptr %terms, align 8
  %arrayidx8.phi.trans.insert.i.i = getelementptr inbounds i8, ptr %.pre.i.i, i64 -4
  %.pre1.i.i = load i32, ptr %arrayidx8.phi.trans.insert.i.i, align 4
  br label %_ZN6vectorIP4exprLb0EjE9push_backERKS1_.exit.i

_ZN6vectorIP4exprLb0EjE9push_backERKS1_.exit.i:   ; preds = %if.then.i.i, %lor.lhs.false.i.i
  %10 = phi i32 [ %.pre1.i.i, %if.then.i.i ], [ %8, %lor.lhs.false.i.i ]
  %11 = phi ptr [ %.pre.i.i, %if.then.i.i ], [ %7, %lor.lhs.false.i.i ]
  %idx.ext.i13.i = zext i32 %10 to i64
  %add.ptr.i14.i = getelementptr inbounds ptr, ptr %11, i64 %idx.ext.i13.i
  store ptr %6, ptr %add.ptr.i14.i, align 8
  %12 = load ptr, ptr %terms, align 8
  %arrayidx10.i.i = getelementptr inbounds i8, ptr %12, i64 -4
  %13 = load i32, ptr %arrayidx10.i.i, align 4
  %inc.i.i = add i32 %13, 1
  store i32 %inc.i.i, ptr %arrayidx10.i.i, align 4
  %incdec.ptr.i = getelementptr inbounds i8, ptr %__begin2.018.i, i64 8
  %cmp13.not.i = icmp eq ptr %incdec.ptr.i, %add.ptr.i.ptr.i
  br i1 %cmp13.not.i, label %_ZNK13proof_checker8match_opEPK4expriR10ptr_vectorIS0_E.exit, label %for.body.i

_ZNK13proof_checker8match_opEPK4expriR10ptr_vectorIS0_E.exit: ; preds = %_ZN6vectorIP4exprLb0EjE9push_backERKS1_.exit.i, %entry, %land.lhs.true.i, %_ZNK3app13get_family_idEv.exit.i, %_ZNK3app13get_decl_kindEv.exit.i, %if.then.i
  %retval.0.i = phi i1 [ false, %_ZNK3app13get_decl_kindEv.exit.i ], [ false, %_ZNK3app13get_family_idEv.exit.i ], [ false, %entry ], [ false, %land.lhs.true.i ], [ true, %if.then.i ], [ true, %_ZN6vectorIP4exprLb0EjE9push_backERKS1_.exit.i ]
  ret i1 %retval.0.i
}